target datalayout = "e-m:e-p270:32:32-p271:32:32-p272:64:64-i64:64-i128:128-f80:128-n8:16:32:64-S128"
target triple = "x86_64-unknown-linux-gnu"

%struct.QTailQLink = type { ptr, ptr }
%struct.MemoryRegion = type { %struct.Object, i8, i8, i8, i8, i8, i8, i8, i8, i8, i8, ptr, ptr, ptr, ptr, ptr, ptr, i32, i128, i64, ptr, i64, i8, i8, i8, i8, i8, ptr, i64, i32, %union.anon.2, %union.anon.3, %union.anon.4, ptr, i32, ptr, ptr, i8 }
%struct.Object = type { ptr, ptr, ptr, i32, ptr }
%union.anon.2 = type { %struct.QTailQLink }
%union.anon.3 = type { %struct.QTailQLink }
%union.anon.4 = type { %struct.QTailQLink }
%struct.MemoryRegionPortio = type { i32, i32, i32, ptr, ptr, i32 }
%struct.MemoryRegionPortioList = type { %struct.Object, %struct.MemoryRegion, ptr, ptr }

; Function Attrs: nounwind sspstrong uwtable
define internal ptr @find_portio(ptr noundef %mrpio, i64 noundef %offset, i32 noundef %size, i1 noundef zeroext %write) #0 {
entry:
  %retval = alloca ptr, align 8
  %mrpio.addr = alloca ptr, align 8
  %offset.addr = alloca i64, align 8
  %size.addr = alloca i32, align 4
  %write.addr = alloca i8, align 1
  %mrp = alloca ptr, align 8
  store ptr %mrpio, ptr %mrpio.addr, align 8
  store i64 %offset, ptr %offset.addr, align 8
  store i32 %size, ptr %size.addr, align 4
  %frombool = zext i1 %write to i8
  store i8 %frombool, ptr %write.addr, align 1
  %0 = load ptr, ptr %mrpio.addr, align 8
  %ports = getelementptr inbounds %struct.MemoryRegionPortioList, ptr %0, i32 0, i32 3
  %1 = load ptr, ptr %ports, align 8
  store ptr %1, ptr %mrp, align 8
  br label %for.cond

for.cond:                                         ; preds = %for.inc, %entry
  %2 = load ptr, ptr %mrp, align 8
  %size1 = getelementptr inbounds %struct.MemoryRegionPortio, ptr %2, i32 0, i32 2
  %3 = load i32, ptr %size1, align 8
  %tobool = icmp ne i32 %3, 0
  br i1 %tobool, label %for.body, label %for.end

for.body:                                         ; preds = %for.cond
  %4 = load i64, ptr %offset.addr, align 8
  %5 = load ptr, ptr %mrp, align 8
  %offset2 = getelementptr inbounds %struct.MemoryRegionPortio, ptr %5, i32 0, i32 0
  %6 = load i32, ptr %offset2, align 8
  %conv = zext i32 %6 to i64
  %cmp = icmp uge i64 %4, %conv
  br i1 %cmp, label %land.lhs.true, label %if.end

land.lhs.true:                                    ; preds = %for.body
  %7 = load i64, ptr %offset.addr, align 8
  %8 = load ptr, ptr %mrp, align 8
  %offset4 = getelementptr inbounds %struct.MemoryRegionPortio, ptr %8, i32 0, i32 0
  %9 = load i32, ptr %offset4, align 8
  %10 = load ptr, ptr %mrp, align 8
  %len = getelementptr inbounds %struct.MemoryRegionPortio, ptr %10, i32 0, i32 1
  %11 = load i32, ptr %len, align 4
  %add = add i32 %9, %11
  %conv5 = zext i32 %add to i64
  %cmp6 = icmp ult i64 %7, %conv5
  br i1 %cmp6, label %land.lhs.true8, label %if.end

land.lhs.true8:                                   ; preds = %land.lhs.true
  %12 = load i32, ptr %size.addr, align 4
  %13 = load ptr, ptr %mrp, align 8
  %size9 = getelementptr inbounds %struct.MemoryRegionPortio, ptr %13, i32 0, i32 2
  %14 = load i32, ptr %size9, align 8
  %cmp10 = icmp eq i32 %12, %14
  br i1 %cmp10, label %land.lhs.true12, label %if.end

land.lhs.true12:                                  ; preds = %land.lhs.true8
  %15 = load i8, ptr %write.addr, align 1
  %tobool13 = trunc i8 %15 to i1
  br i1 %tobool13, label %cond.true, label %cond.false

cond.true:                                        ; preds = %land.lhs.true12
  %16 = load ptr, ptr %mrp, align 8
  %write15 = getelementptr inbounds %struct.MemoryRegionPortio, ptr %16, i32 0, i32 4
  %17 = load ptr, ptr %write15, align 8
  %tobool16 = icmp ne ptr %17, null
  br i1 %tobool16, label %if.then, label %if.end

cond.false:                                       ; preds = %land.lhs.true12
  %18 = load ptr, ptr %mrp, align 8
  %read = getelementptr inbounds %struct.MemoryRegionPortio, ptr %18, i32 0, i32 3
  %19 = load ptr, ptr %read, align 8
  %tobool18 = icmp ne ptr %19, null
  br i1 %tobool18, label %if.then, label %if.end

if.then:                                          ; preds = %cond.false, %cond.true
  %20 = load ptr, ptr %mrp, align 8
  store ptr %20, ptr %retval, align 8
  br label %return

if.end:                                           ; preds = %cond.false, %cond.true, %land.lhs.true8, %land.lhs.true, %for.body
  br label %for.inc

for.inc:                                          ; preds = %if.end
  %21 = load ptr, ptr %mrp, align 8
  %incdec.ptr = getelementptr %struct.MemoryRegionPortio, ptr %21, i32 1
  store ptr %incdec.ptr, ptr %mrp, align 8
  br label %for.cond, !llvm.loop !14

for.end:                                          ; preds = %for.cond
  store ptr null, ptr %retval, align 8
  br label %return

return:                                           ; preds = %for.end, %if.then
  %22 = load ptr, ptr %retval, align 8
  ret ptr %22
}

; Function Attrs: nounwind sspstrong uwtable
define internal i64 @portio_read(ptr noundef %opaque, i64 noundef %addr, i32 noundef %size) #0 {
entry:
  %opaque.addr = alloca ptr, align 8
  %addr.addr = alloca i64, align 8
  %size.addr = alloca i32, align 4
  %mrpio = alloca ptr, align 8
  %mrp = alloca ptr, align 8
  %data = alloca i64, align 8
  store ptr %opaque, ptr %opaque.addr, align 8
  store i64 %addr, ptr %addr.addr, align 8
  store i32 %size, ptr %size.addr, align 4
  %0 = load ptr, ptr %opaque.addr, align 8
  store ptr %0, ptr %mrpio, align 8
  %1 = load ptr, ptr %mrpio, align 8
  %2 = load i64, ptr %addr.addr, align 8
  %3 = load i32, ptr %size.addr, align 4
  %call = call ptr @find_portio(ptr noundef %1, i64 noundef %2, i32 noundef %3, i1 noundef zeroext false)
  store ptr %call, ptr %mrp, align 8
  %4 = load i32, ptr %size.addr, align 4
  %mul = mul i32 %4, 8
  %sh_prom = zext i32 %mul to i64
  %shl = shl i64 1, %sh_prom
  %sub = sub i64 %shl, 1
  store i64 %sub, ptr %data, align 8
  %5 = load ptr, ptr %mrp, align 8
  %tobool = icmp ne ptr %5, null
  br i1 %tobool, label %if.then, label %if.else

if.then:                                          ; preds = %entry
  %6 = load ptr, ptr %mrp, align 8
  %read = getelementptr inbounds %struct.MemoryRegionPortio, ptr %6, i32 0, i32 3
  %7 = load ptr, ptr %read, align 8
  %8 = load ptr, ptr %mrpio, align 8
  %portio_opaque = getelementptr inbounds %struct.MemoryRegionPortioList, ptr %8, i32 0, i32 2
  %9 = load ptr, ptr %portio_opaque, align 16
  %10 = load ptr, ptr %mrp, align 8
  %base = getelementptr inbounds %struct.MemoryRegionPortio, ptr %10, i32 0, i32 5
  %11 = load i32, ptr %base, align 8
  %conv = zext i32 %11 to i64
  %12 = load i64, ptr %addr.addr, align 8
  %add = add i64 %conv, %12
  %conv1 = trunc i64 %add to i32
  %call2 = call i32 %7(ptr noundef %9, i32 noundef %conv1)
  %conv3 = zext i32 %call2 to i64
  store i64 %conv3, ptr %data, align 8
  br label %if.end37

if.else:                                          ; preds = %entry
  %13 = load i32, ptr %size.addr, align 4
  %cmp = icmp eq i32 %13, 2
  br i1 %cmp, label %if.then5, label %if.end36

if.then5:                                         ; preds = %if.else
  %14 = load ptr, ptr %mrpio, align 8
  %15 = load i64, ptr %addr.addr, align 8
  %call6 = call ptr @find_portio(ptr noundef %14, i64 noundef %15, i32 noundef 1, i1 noundef zeroext false)
  store ptr %call6, ptr %mrp, align 8
  %16 = load ptr, ptr %mrp, align 8
  %tobool7 = icmp ne ptr %16, null
  br i1 %tobool7, label %if.then8, label %if.end35

if.then8:                                         ; preds = %if.then5
  %17 = load ptr, ptr %mrp, align 8
  %read9 = getelementptr inbounds %struct.MemoryRegionPortio, ptr %17, i32 0, i32 3
  %18 = load ptr, ptr %read9, align 8
  %19 = load ptr, ptr %mrpio, align 8
  %portio_opaque10 = getelementptr inbounds %struct.MemoryRegionPortioList, ptr %19, i32 0, i32 2
  %20 = load ptr, ptr %portio_opaque10, align 16
  %21 = load ptr, ptr %mrp, align 8
  %base11 = getelementptr inbounds %struct.MemoryRegionPortio, ptr %21, i32 0, i32 5
  %22 = load i32, ptr %base11, align 8
  %conv12 = zext i32 %22 to i64
  %23 = load i64, ptr %addr.addr, align 8
  %add13 = add i64 %conv12, %23
  %conv14 = trunc i64 %add13 to i32
  %call15 = call i32 %18(ptr noundef %20, i32 noundef %conv14)
  %conv16 = zext i32 %call15 to i64
  store i64 %conv16, ptr %data, align 8
  %24 = load i64, ptr %addr.addr, align 8
  %add17 = add i64 %24, 1
  %25 = load ptr, ptr %mrp, align 8
  %offset = getelementptr inbounds %struct.MemoryRegionPortio, ptr %25, i32 0, i32 0
  %26 = load i32, ptr %offset, align 8
  %27 = load ptr, ptr %mrp, align 8
  %len = getelementptr inbounds %struct.MemoryRegionPortio, ptr %27, i32 0, i32 1
  %28 = load i32, ptr %len, align 4
  %add18 = add i32 %26, %28
  %conv19 = zext i32 %add18 to i64
  %cmp20 = icmp ult i64 %add17, %conv19
  br i1 %cmp20, label %if.then22, label %if.else33

if.then22:                                        ; preds = %if.then8
  %29 = load ptr, ptr %mrp, align 8
  %read23 = getelementptr inbounds %struct.MemoryRegionPortio, ptr %29, i32 0, i32 3
  %30 = load ptr, ptr %read23, align 8
  %31 = load ptr, ptr %mrpio, align 8
  %portio_opaque24 = getelementptr inbounds %struct.MemoryRegionPortioList, ptr %31, i32 0, i32 2
  %32 = load ptr, ptr %portio_opaque24, align 16
  %33 = load ptr, ptr %mrp, align 8
  %base25 = getelementptr inbounds %struct.MemoryRegionPortio, ptr %33, i32 0, i32 5
  %34 = load i32, ptr %base25, align 8
  %conv26 = zext i32 %34 to i64
  %35 = load i64, ptr %addr.addr, align 8
  %add27 = add i64 %conv26, %35
  %add28 = add i64 %add27, 1
  %conv29 = trunc i64 %add28 to i32
  %call30 = call i32 %30(ptr noundef %32, i32 noundef %conv29)
  %shl31 = shl i32 %call30, 8
  %conv32 = zext i32 %shl31 to i64
  %36 = load i64, ptr %data, align 8
  %or = or i64 %36, %conv32
  store i64 %or, ptr %data, align 8
  br label %if.end

if.else33:                                        ; preds = %if.then8
  %37 = load i64, ptr %data, align 8
  %or34 = or i64 %37, 65280
  store i64 %or34, ptr %data, align 8
  br label %if.end

if.end:                                           ; preds = %if.else33, %if.then22
  br label %if.end35

if.end35:                                         ; preds = %if.end, %if.then5
  br label %if.end36

if.end36:                                         ; preds = %if.end35, %if.else
  br label %if.end37

if.end37:                                         ; preds = %if.end36, %if.then
  %38 = load i64, ptr %data, align 8
  ret i64 %38
}