; Function Attrs: nounwind sspstrong uwtable
define internal range(i64 0, -9223372036854775808) i64 @portio_read(ptr noundef readonly captures(none) %opaque, i64 noundef %addr, i32 noundef %size) #1 {
entry:
  %0 = getelementptr i8, ptr %opaque, i64 328
  %opaque.val = load ptr, ptr %0, align 8
  %size11.i = getelementptr inbounds nuw i8, ptr %opaque.val, i64 8
  %1 = load i32, ptr %size11.i, align 8
  %tobool.not2.i = icmp eq i32 %1, 0
  br i1 %tobool.not2.i, label %if.else.thread, label %for.body.i

for.body.i:                                       ; preds = %entry, %for.inc.i
  %2 = phi i32 [ %6, %for.inc.i ], [ %1, %entry ]
  %mrp.03.i = phi ptr [ %incdec.ptr.i, %for.inc.i ], [ %opaque.val, %entry ]
  %3 = load i32, ptr %mrp.03.i, align 8
  %conv.i = zext i32 %3 to i64
  %cmp.not.i = icmp ult i64 %addr, %conv.i
  br i1 %cmp.not.i, label %for.inc.i, label %land.lhs.true.i

land.lhs.true.i:                                  ; preds = %for.body.i
  %len.i = getelementptr inbounds nuw i8, ptr %mrp.03.i, i64 4
  %4 = load i32, ptr %len.i, align 4
  %add.i = add i32 %4, %3
  %conv5.i = zext i32 %add.i to i64
  %cmp6.i = icmp ult i64 %addr, %conv5.i
  %cmp10.i = icmp eq i32 %size, %2
  %or.cond.i = and i1 %cmp10.i, %cmp6.i
  br i1 %or.cond.i, label %land.lhs.true12.i, label %for.inc.i

land.lhs.true12.i:                                ; preds = %land.lhs.true.i
  %read.i = getelementptr inbounds nuw i8, ptr %mrp.03.i, i64 16
  %5 = load ptr, ptr %read.i, align 8
  %tobool18.not.i = icmp eq ptr %5, null
  br i1 %tobool18.not.i, label %for.inc.i, label %if.then

for.inc.i:                                        ; preds = %land.lhs.true12.i, %land.lhs.true.i, %for.body.i
  %incdec.ptr.i = getelementptr i8, ptr %mrp.03.i, i64 40
  %size1.i = getelementptr i8, ptr %mrp.03.i, i64 48
  %6 = load i32, ptr %size1.i, align 8
  %tobool.not.i = icmp eq i32 %6, 0
  br i1 %tobool.not.i, label %if.else, label %for.body.i, !llvm.loop !14

if.then:                                          ; preds = %land.lhs.true12.i
  %portio_opaque = getelementptr inbounds nuw i8, ptr %opaque, i64 320
  %7 = load ptr, ptr %portio_opaque, align 16
  %base = getelementptr inbounds nuw i8, ptr %mrp.03.i, i64 32
  %8 = load i32, ptr %base, align 8
  %9 = trunc i64 %addr to i32
  %conv1 = add i32 %8, %9
  %call2 = tail call i32 %5(ptr noundef %7, i32 noundef %conv1) #11
  %conv3 = zext i32 %call2 to i64
  br label %if.end37

if.else:                                          ; preds = %for.inc.i
  %mul49 = shl i32 %size, 3
  %sh_prom50 = zext nneg i32 %mul49 to i64
  %notmask51 = shl nsw i64 -1, %sh_prom50
  %sub52 = xor i64 %notmask51, -1
  %cmp.not = icmp eq i32 %size, 2
  br i1 %cmp.not, label %for.body.i28, label %if.end37

if.else.thread:                                   ; preds = %entry
  %mul4955 = shl i32 %size, 3
  %sh_prom5056 = zext nneg i32 %mul4955 to i64
  %notmask5157 = shl nsw i64 -1, %sh_prom5056
  %sub5258 = xor i64 %notmask5157, -1
  br label %if.end37

for.body.i28:                                     ; preds = %if.else, %for.inc.i39
  %10 = phi i32 [ %14, %for.inc.i39 ], [ %1, %if.else ]
  %mrp.03.i29 = phi ptr [ %incdec.ptr.i40, %for.inc.i39 ], [ %opaque.val, %if.else ]
  %11 = load i32, ptr %mrp.03.i29, align 8
  %conv.i30 = zext i32 %11 to i64
  %cmp.not.i31 = icmp ult i64 %addr, %conv.i30
  br i1 %cmp.not.i31, label %for.inc.i39, label %land.lhs.true.i32

land.lhs.true.i32:                                ; preds = %for.body.i28
  %len.i33 = getelementptr inbounds nuw i8, ptr %mrp.03.i29, i64 4
  %12 = load i32, ptr %len.i33, align 4
  %add.i34 = add i32 %12, %11
  %conv5.i35 = zext i32 %add.i34 to i64
  %cmp6.i36 = icmp ult i64 %addr, %conv5.i35
  %cmp10.i37 = icmp eq i32 %10, 1
  %or.cond.i38 = and i1 %cmp10.i37, %cmp6.i36
  br i1 %or.cond.i38, label %land.lhs.true12.i44, label %for.inc.i39

land.lhs.true12.i44:                              ; preds = %land.lhs.true.i32
  %read.i45 = getelementptr inbounds nuw i8, ptr %mrp.03.i29, i64 16
  %13 = load ptr, ptr %read.i45, align 8
  %tobool18.not.i46 = icmp eq ptr %13, null
  br i1 %tobool18.not.i46, label %for.inc.i39, label %if.then8

for.inc.i39:                                      ; preds = %land.lhs.true12.i44, %land.lhs.true.i32, %for.body.i28
  %incdec.ptr.i40 = getelementptr i8, ptr %mrp.03.i29, i64 40
  %size1.i41 = getelementptr i8, ptr %mrp.03.i29, i64 48
  %14 = load i32, ptr %size1.i41, align 8
  %tobool.not.i42 = icmp eq i32 %14, 0
  br i1 %tobool.not.i42, label %if.end37, label %for.body.i28, !llvm.loop !14

if.then8:                                         ; preds = %land.lhs.true12.i44
  %len.i33.le = getelementptr inbounds nuw i8, ptr %mrp.03.i29, i64 4
  %portio_opaque10 = getelementptr inbounds nuw i8, ptr %opaque, i64 320
  %15 = load ptr, ptr %portio_opaque10, align 16
  %base11 = getelementptr inbounds nuw i8, ptr %mrp.03.i29, i64 32
  %16 = load i32, ptr %base11, align 8
  %17 = trunc i64 %addr to i32
  %conv14 = add i32 %16, %17
  %call15 = tail call i32 %13(ptr noundef %15, i32 noundef %conv14) #11
  %add17 = add nuw nsw i64 %addr, 1
  %18 = load i32, ptr %mrp.03.i29, align 8
  %19 = load i32, ptr %len.i33.le, align 4
  %add18 = add i32 %19, %18
  %conv19 = zext i32 %add18 to i64
  %cmp20 = icmp samesign ult i64 %add17, %conv19
  br i1 %cmp20, label %if.then22, label %if.else33

if.then22:                                        ; preds = %if.then8
  %read.i45.le = getelementptr inbounds nuw i8, ptr %mrp.03.i29, i64 16
  %20 = load ptr, ptr %read.i45.le, align 8
  %21 = load ptr, ptr %portio_opaque10, align 16
  %22 = load i32, ptr %base11, align 8
  %23 = add nuw i32 %17, 1
  %conv29 = add i32 %23, %22
  %call30 = tail call i32 %20(ptr noundef %21, i32 noundef %conv29) #11
  %shl31 = shl i32 %call30, 8
  %or23 = or i32 %shl31, %call15
  %or = zext i32 %or23 to i64
  br label %if.end37

if.else33:                                        ; preds = %if.then8
  %24 = or i32 %call15, 65280
  %or34 = zext i32 %24 to i64
  br label %if.end37

if.end37:                                         ; preds = %for.inc.i39, %if.else, %if.else.thread, %if.then22, %if.else33, %if.then
  %data.0 = phi i64 [ %conv3, %if.then ], [ %or, %if.then22 ], [ %or34, %if.else33 ], [ %sub52, %if.else ], [ %sub5258, %if.else.thread ], [ %sub52, %for.inc.i39 ]
  ret i64 %data.0
}